target datalayout = "e-m:e-p270:32:32-p271:32:32-p272:64:64-i64:64-i128:128-f80:128-n8:16:32:64-S128"
target triple = "x86_64-pc-linux-gnu"

%struct.block_data_arg = type { ptr, ptr, ptr }
%struct.info = type { i32, i32, i32, i32, i32, i32, ptr, ptr }

@hf_pcapng_record_padding = internal global i32 0, align 4
@hf_pcapng_dsb_secrets_type = internal global i32 0, align 4
@hf_pcapng_dsb_secrets_length = internal global i32 0, align 4
@hf_pcapng_dsb_secrets_data = internal global i32 0, align 4

; Function Attrs: null_pointer_is_valid sspstrong uwtable
define internal void @dissect_dsb_data(ptr noundef %0, ptr noundef %1, ptr noundef %2, ptr noundef %3) #0 {
  %5 = alloca ptr, align 8
  %6 = alloca ptr, align 8
  %7 = alloca ptr, align 8
  %8 = alloca ptr, align 8
  %9 = alloca i32, align 4
  %10 = alloca i32, align 4
  %11 = alloca i32, align 4
  store ptr %0, ptr %5, align 8
  store ptr %1, ptr %6, align 8
  store ptr %2, ptr %7, align 8
  store ptr %3, ptr %8, align 8
  call void @llvm.lifetime.start.p0(i64 4, ptr %9) #14
  store i32 0, ptr %9, align 4
  call void @llvm.lifetime.start.p0(i64 4, ptr %10) #14
  %12 = load ptr, ptr %5, align 8
  %13 = load i32, ptr @hf_pcapng_dsb_secrets_type, align 4
  %14 = load ptr, ptr %7, align 8
  %15 = load i32, ptr %9, align 4
  %16 = load ptr, ptr %8, align 8
  %17 = getelementptr inbounds nuw %struct.block_data_arg, ptr %16, i32 0, i32 2
  %18 = load ptr, ptr %17, align 8
  %19 = getelementptr inbounds nuw %struct.info, ptr %18, i32 0, i32 5
  %20 = load i32, ptr %19, align 4
  %21 = call ptr @proto_tree_add_item(ptr noundef %12, i32 noundef %13, ptr noundef %14, i32 noundef %15, i32 noundef 4, i32 noundef %20)
  %22 = load i32, ptr %9, align 4
  %23 = add i32 %22, 4
  store i32 %23, ptr %9, align 4
  %24 = load ptr, ptr %5, align 8
  %25 = load i32, ptr @hf_pcapng_dsb_secrets_length, align 4
  %26 = load ptr, ptr %7, align 8
  %27 = load i32, ptr %9, align 4
  %28 = load ptr, ptr %8, align 8
  %29 = getelementptr inbounds nuw %struct.block_data_arg, ptr %28, i32 0, i32 2
  %30 = load ptr, ptr %29, align 8
  %31 = getelementptr inbounds nuw %struct.info, ptr %30, i32 0, i32 5
  %32 = load i32, ptr %31, align 4
  %33 = call ptr @proto_tree_add_item_ret_uint(ptr noundef %24, i32 noundef %25, ptr noundef %26, i32 noundef %27, i32 noundef 4, i32 noundef %32, ptr noundef %10)
  %34 = load i32, ptr %9, align 4
  %35 = add i32 %34, 4
  store i32 %35, ptr %9, align 4
  %36 = load ptr, ptr %5, align 8
  %37 = load i32, ptr @hf_pcapng_dsb_secrets_data, align 4
  %38 = load ptr, ptr %7, align 8
  %39 = load i32, ptr %9, align 4
  %40 = load i32, ptr %10, align 4
  %41 = load ptr, ptr %8, align 8
  %42 = getelementptr inbounds nuw %struct.block_data_arg, ptr %41, i32 0, i32 2
  %43 = load ptr, ptr %42, align 8
  %44 = getelementptr inbounds nuw %struct.info, ptr %43, i32 0, i32 5
  %45 = load i32, ptr %44, align 4
  %46 = call ptr @proto_tree_add_item(ptr noundef %36, i32 noundef %37, ptr noundef %38, i32 noundef %39, i32 noundef %40, i32 noundef %45)
  %47 = load i32, ptr %10, align 4
  %48 = load i32, ptr %9, align 4
  %49 = add i32 %48, %47
  store i32 %49, ptr %9, align 4
  call void @llvm.lifetime.start.p0(i64 4, ptr %11) #14
  %50 = load i32, ptr %10, align 4
  %51 = and i32 %50, 3
  %52 = sub i32 4, %51
  %53 = and i32 %52, 3
  store i32 %53, ptr %11, align 4
  %54 = load i32, ptr %11, align 4
  %55 = icmp ne i32 %54, 0
  br i1 %55, label %56, label %66

56:                                               ; preds = %4
  %57 = load ptr, ptr %5, align 8
  %58 = load i32, ptr @hf_pcapng_record_padding, align 4
  %59 = load ptr, ptr %7, align 8
  %60 = load i32, ptr %9, align 4
  %61 = load i32, ptr %11, align 4
  %62 = call ptr @proto_tree_add_item(ptr noundef %57, i32 noundef %58, ptr noundef %59, i32 noundef %60, i32 noundef %61, i32 noundef 0)
  %63 = load i32, ptr %11, align 4
  %64 = load i32, ptr %9, align 4
  %65 = add i32 %64, %63
  store i32 %65, ptr %9, align 4
  br label %66

66:                                               ; preds = %56, %4
  %67 = load ptr, ptr %5, align 8
  %68 = load ptr, ptr %6, align 8
  %69 = load ptr, ptr %7, align 8
  %70 = load i32, ptr %9, align 4
  %71 = load ptr, ptr %8, align 8
  %72 = getelementptr inbounds nuw %struct.block_data_arg, ptr %71, i32 0, i32 2
  %73 = load ptr, ptr %72, align 8
  %74 = getelementptr inbounds nuw %struct.info, ptr %73, i32 0, i32 5
  %75 = load i32, ptr %74, align 4
  %76 = call i32 @dissect_options(ptr noundef %67, ptr noundef %68, i32 noundef 10, ptr noundef %69, i32 noundef %70, i32 noundef %75, ptr noundef null)
  call void @llvm.lifetime.end.p0(i64 4, ptr %11) #14
  call void @llvm.lifetime.end.p0(i64 4, ptr %10) #14
  call void @llvm.lifetime.end.p0(i64 4, ptr %9) #14
  ret void
}