; Function Attrs: null_pointer_is_valid sspstrong uwtable
define internal fastcc void @dissect_dsb_data(ptr noundef %0, ptr noundef %1, ptr noundef %2, ptr noundef readonly captures(none) %3) unnamed_addr #0 {
  %5 = alloca i32, align 4
  call void @llvm.lifetime.start.p0(i64 4, ptr nonnull %5) #9
  %6 = load i32, ptr @hf_pcapng_dsb_secrets_type, align 4
  %7 = getelementptr inbounds nuw i8, ptr %3, i64 16
  %8 = load ptr, ptr %7, align 8
  %9 = getelementptr inbounds nuw i8, ptr %8, i64 20
  %10 = load i32, ptr %9, align 4
  %11 = tail call ptr @proto_tree_add_item(ptr noundef %0, i32 noundef %6, ptr noundef %2, i32 noundef 0, i32 noundef 4, i32 noundef %10)
  %12 = load i32, ptr @hf_pcapng_dsb_secrets_length, align 4
  %13 = load ptr, ptr %7, align 8
  %14 = getelementptr inbounds nuw i8, ptr %13, i64 20
  %15 = load i32, ptr %14, align 4
  %16 = call ptr @proto_tree_add_item_ret_uint(ptr noundef %0, i32 noundef %12, ptr noundef %2, i32 noundef 4, i32 noundef 4, i32 noundef %15, ptr noundef nonnull %5)
  %17 = load i32, ptr @hf_pcapng_dsb_secrets_data, align 4
  %18 = load i32, ptr %5, align 4
  %19 = load ptr, ptr %7, align 8
  %20 = getelementptr inbounds nuw i8, ptr %19, i64 20
  %21 = load i32, ptr %20, align 4
  %22 = call ptr @proto_tree_add_item(ptr noundef %0, i32 noundef %17, ptr noundef %2, i32 noundef 8, i32 noundef %18, i32 noundef %21)
  %23 = load i32, ptr %5, align 4
  %24 = add i32 %23, 8
  %25 = sub i32 0, %23
  %26 = and i32 %25, 3
  %.not = icmp eq i32 %26, 0
  br i1 %.not, label %31, label %27

27:                                               ; preds = %4
  %28 = load i32, ptr @hf_pcapng_record_padding, align 4
  %29 = call ptr @proto_tree_add_item(ptr noundef %0, i32 noundef %28, ptr noundef %2, i32 noundef %24, i32 noundef %26, i32 noundef 0)
  %30 = add i32 %24, %26
  br label %31

31:                                               ; preds = %27, %4
  %.0 = phi i32 [ %30, %27 ], [ %24, %4 ]
  %32 = load ptr, ptr %7, align 8
  %33 = getelementptr inbounds nuw i8, ptr %32, i64 20
  %34 = load i32, ptr %33, align 4
  %35 = call i32 @dissect_options(ptr noundef %0, ptr noundef %1, i32 noundef 10, ptr noundef %2, i32 noundef %.0, i32 noundef %34, ptr noundef null)
  call void @llvm.lifetime.end.p0(i64 4, ptr nonnull %5) #9
  ret void
}